target datalayout = "e-m:e-p270:32:32-p271:32:32-p272:64:64-i64:64-i128:128-f80:128-n8:16:32:64-S128"
target triple = "x86_64-pc-linux-gnu"

%class.QString = type { %struct.QArrayDataPointer }
%struct.QArrayDataPointer = type { ptr, ptr, i64 }
%class.MainStatusBar = type { %class.QStatusBar, ptr, ptr, %class.LabelStack, %class.ProgressFrame, %class.LabelStack, %class.ClickableLabel, ptr, %class.QString, i8, i32 }
%class.QStatusBar = type { %class.QWidget }
%class.QWidget = type { %class.QObject, %class.QPaintDevice.base, ptr }
%class.QObject = type { ptr, %class.QScopedPointer }
%class.QScopedPointer = type { ptr }
%class.QPaintDevice.base = type <{ ptr, i16 }>
%class.ProgressFrame = type { %class.QFrame, ptr, %struct.progdlg, %class.QString, %class.QString, i8, ptr, i32, ptr, ptr }
%class.QFrame = type { %class.QWidget }
%struct.progdlg = type { ptr, ptr }
%class.LabelStack = type { %class.QLabel, i32, %class.QList.5, i8, %class.QElapsedTimer, %class.QTimer }
%class.QLabel = type { %class.QFrame }
%class.QList.5 = type { %struct.QArrayDataPointer.8 }
%struct.QArrayDataPointer.8 = type { ptr, ptr, i64 }
%class.QElapsedTimer = type { i64, i64 }
%class.QTimer = type { %class.QObject }
%class.ClickableLabel = type { %class.QLabel }
%struct.QArrayData = type { %class.QBasicAtomicInteger, %class.QFlags.40, i64 }
%class.QBasicAtomicInteger = type { %"struct.std::atomic" }
%"struct.std::atomic" = type { %"struct.std::__atomic_base" }
%"struct.std::__atomic_base" = type { i32 }
%class.QFlags.40 = type { i32 }

; Function Attrs: mustprogress nounwind uwtable
define linkonce_odr noundef i32 @_ZNSt13__atomic_baseIiEmmEv(ptr noundef nonnull align 4 dereferenceable(4) %0) #1 comdat align 2 {
  %2 = alloca ptr, align 8
  %3 = alloca i32, align 4
  %4 = alloca i32, align 4
  store ptr %0, ptr %2, align 8
  %5 = load ptr, ptr %2, align 8
  %6 = getelementptr inbounds %"struct.std::__atomic_base", ptr %5, i32 0, i32 0
  store i32 1, ptr %3, align 4
  %7 = load i32, ptr %3, align 4
  %8 = atomicrmw sub ptr %6, i32 %7 seq_cst, align 4
  %9 = sub i32 %8, %7
  store i32 %9, ptr %4, align 4
  %10 = load i32, ptr %4, align 4
  ret i32 %10
}

; Function Attrs: mustprogress nounwind uwtable
define linkonce_odr noundef zeroext i1 @_ZN10QAtomicOpsIiE5derefIiEEbRSt6atomicIT_E(ptr noundef nonnull align 4 dereferenceable(4) %0) #1 comdat align 2 {
  %2 = alloca ptr, align 8
  store ptr %0, ptr %2, align 8
  %3 = load ptr, ptr %2, align 8
  %4 = call noundef i32 @_ZNSt13__atomic_baseIiEmmEv(ptr noundef nonnull align 4 dereferenceable(4) %3) #11
  %5 = icmp ne i32 %4, 0
  ret i1 %5
}

; Function Attrs: mustprogress nounwind uwtable
define linkonce_odr noundef zeroext i1 @_ZN19QBasicAtomicIntegerIiE5derefEv(ptr noundef nonnull align 4 dereferenceable(4) %0) #1 comdat align 2 {
  %2 = alloca ptr, align 8
  store ptr %0, ptr %2, align 8
  %3 = load ptr, ptr %2, align 8
  %4 = getelementptr inbounds %class.QBasicAtomicInteger, ptr %3, i32 0, i32 0
  %5 = call noundef zeroext i1 @_ZN10QAtomicOpsIiE5derefIiEEbRSt6atomicIT_E(ptr noundef nonnull align 4 dereferenceable(4) %4) #11
  ret i1 %5
}

; Function Attrs: mustprogress nounwind uwtable
define linkonce_odr noundef zeroext i1 @_ZN10QArrayData5derefEv(ptr noundef nonnull align 8 dereferenceable(16) %0) #1 comdat align 2 {
  %2 = alloca ptr, align 8
  store ptr %0, ptr %2, align 8
  %3 = load ptr, ptr %2, align 8
  %4 = getelementptr inbounds %struct.QArrayData, ptr %3, i32 0, i32 0
  %5 = call noundef zeroext i1 @_ZN19QBasicAtomicIntegerIiE5derefEv(ptr noundef nonnull align 4 dereferenceable(4) %4) #11
  ret i1 %5
}

; Function Attrs: mustprogress nounwind uwtable
define linkonce_odr void @_ZN15QTypedArrayDataIDsE10deallocateEP10QArrayData(ptr noundef %0) #1 comdat align 2 {
  %2 = alloca ptr, align 8
  store ptr %0, ptr %2, align 8
  %3 = load ptr, ptr %2, align 8
  call void @_ZN10QArrayData10deallocateEPS_xx(ptr noundef %3, i64 noundef 2, i64 noundef 8) #11
  ret void
}

; Function Attrs: mustprogress nounwind uwtable
define linkonce_odr void @_ZN9QtPrivate12QPodArrayOpsIDsE10destroyAllEv(ptr noundef nonnull align 8 dereferenceable(24) %0) #1 comdat align 2 {
  %2 = alloca ptr, align 8
  store ptr %0, ptr %2, align 8
  ret void
}

; Function Attrs: mustprogress nounwind uwtable
define linkonce_odr noundef ptr @_ZN17QArrayDataPointerIDsEptEv(ptr noundef nonnull align 8 dereferenceable(24) %0) #1 comdat align 2 {
  %2 = alloca ptr, align 8
  store ptr %0, ptr %2, align 8
  %3 = load ptr, ptr %2, align 8
  ret ptr %3
}

; Function Attrs: mustprogress nounwind uwtable
define linkonce_odr noundef zeroext i1 @_ZN17QArrayDataPointerIDsE5derefEv(ptr noundef nonnull align 8 dereferenceable(24) %0) #1 comdat align 2 {
  %2 = alloca ptr, align 8
  store ptr %0, ptr %2, align 8
  %3 = load ptr, ptr %2, align 8
  %4 = getelementptr inbounds %struct.QArrayDataPointer, ptr %3, i32 0, i32 0
  %5 = load ptr, ptr %4, align 8
  %6 = icmp ne ptr %5, null
  br i1 %6, label %7, label %11

7:                                                ; preds = %1
  %8 = getelementptr inbounds %struct.QArrayDataPointer, ptr %3, i32 0, i32 0
  %9 = load ptr, ptr %8, align 8
  %10 = call noundef zeroext i1 @_ZN10QArrayData5derefEv(ptr noundef nonnull align 8 dereferenceable(16) %9) #11
  br label %11

11:                                               ; preds = %7, %1
  %12 = phi i1 [ true, %1 ], [ %10, %7 ]
  ret i1 %12
}

; Function Attrs: mustprogress nounwind uwtable
define linkonce_odr void @_ZN17QArrayDataPointerIDsED2Ev(ptr noundef nonnull align 8 dereferenceable(24) %0) unnamed_addr #1 comdat align 2 {
  %2 = alloca ptr, align 8
  store ptr %0, ptr %2, align 8
  %3 = load ptr, ptr %2, align 8
  %4 = call noundef zeroext i1 @_ZN17QArrayDataPointerIDsE5derefEv(ptr noundef nonnull align 8 dereferenceable(24) %3) #11
  br i1 %4, label %9, label %5

5:                                                ; preds = %1
  %6 = call noundef ptr @_ZN17QArrayDataPointerIDsEptEv(ptr noundef nonnull align 8 dereferenceable(24) %3) #11
  call void @_ZN9QtPrivate12QPodArrayOpsIDsE10destroyAllEv(ptr noundef nonnull align 8 dereferenceable(24) %6) #11
  %7 = getelementptr inbounds %struct.QArrayDataPointer, ptr %3, i32 0, i32 0
  %8 = load ptr, ptr %7, align 8
  call void @_ZN15QTypedArrayDataIDsE10deallocateEP10QArrayData(ptr noundef %8) #11
  br label %9

9:                                                ; preds = %5, %1
  ret void
}

; Function Attrs: mustprogress nounwind uwtable
define linkonce_odr void @_ZN17QArrayDataPointerIDsEC2Ev(ptr noundef nonnull align 8 dereferenceable(24) %0) unnamed_addr #1 comdat align 2 {
  %2 = alloca ptr, align 8
  store ptr %0, ptr %2, align 8
  %3 = load ptr, ptr %2, align 8
  %4 = getelementptr inbounds %struct.QArrayDataPointer, ptr %3, i32 0, i32 0
  store ptr null, ptr %4, align 8
  %5 = getelementptr inbounds %struct.QArrayDataPointer, ptr %3, i32 0, i32 1
  store ptr null, ptr %5, align 8
  %6 = getelementptr inbounds %struct.QArrayDataPointer, ptr %3, i32 0, i32 2
  store i64 0, ptr %6, align 8
  ret void
}

; Function Attrs: mustprogress nounwind uwtable
define linkonce_odr void @_ZN7QStringD2Ev(ptr noundef nonnull align 8 dereferenceable(24) %0) unnamed_addr #1 comdat align 2 {
  %2 = alloca ptr, align 8
  store ptr %0, ptr %2, align 8
  %3 = load ptr, ptr %2, align 8
  %4 = getelementptr inbounds %class.QString, ptr %3, i32 0, i32 0
  call void @_ZN17QArrayDataPointerIDsED2Ev(ptr noundef nonnull align 8 dereferenceable(24) %4) #11
  ret void
}

; Function Attrs: mustprogress nounwind uwtable
define linkonce_odr void @_ZN7QStringC2Ev(ptr noundef nonnull align 8 dereferenceable(24) %0) unnamed_addr #1 comdat align 2 {
  %2 = alloca ptr, align 8
  store ptr %0, ptr %2, align 8
  %3 = load ptr, ptr %2, align 8
  %4 = getelementptr inbounds %class.QString, ptr %3, i32 0, i32 0
  call void @_ZN17QArrayDataPointerIDsEC2Ev(ptr noundef nonnull align 8 dereferenceable(24) %4) #11
  ret void
}

; Function Attrs: mustprogress uwtable
define void @_ZN13MainStatusBar16popGenericStatusENS_13StatusContextE(ptr noundef nonnull align 8 dereferenceable(512) %0, i32 noundef %1) #0 align 2 personality ptr @__gxx_personality_v0 {
  %3 = alloca ptr, align 8
  %4 = alloca i32, align 4
  %5 = alloca ptr, align 8
  %6 = alloca %class.QString, align 8
  %7 = alloca ptr, align 8
  %8 = alloca i32, align 4
  store ptr %0, ptr %3, align 8
  store i32 %1, ptr %4, align 4
  %9 = load ptr, ptr %3, align 8
  %10 = getelementptr inbounds %class.MainStatusBar, ptr %9, i32 0, i32 3
  store ptr %10, ptr %5, align 8
  %11 = load i32, ptr %4, align 4
  %12 = icmp eq i32 %11, 0
  br i1 %12, label %13, label %15

13:                                               ; preds = %2
  %14 = getelementptr inbounds %class.MainStatusBar, ptr %9, i32 0, i32 5
  store ptr %14, ptr %5, align 8
  br label %15

15:                                               ; preds = %13, %2
  %16 = load ptr, ptr %5, align 8
  call void @_ZN7QStringC2Ev(ptr noundef nonnull align 8 dereferenceable(24) %6) #11
  invoke void @_ZN7QWidget10setToolTipERK7QString(ptr noundef nonnull align 8 dereferenceable(40) %16, ptr noundef nonnull align 8 dereferenceable(24) %6)
          to label %17 unwind label %20

17:                                               ; preds = %15
  call void @_ZN7QStringD2Ev(ptr noundef nonnull align 8 dereferenceable(24) %6) #11
  %18 = load ptr, ptr %5, align 8
  %19 = load i32, ptr %4, align 4
  call void @_ZN10LabelStack7popTextEi(ptr noundef nonnull align 8 dereferenceable(112) %18, i32 noundef %19)
  ret void

20:                                               ; preds = %15
  %21 = landingpad { ptr, i32 }
          cleanup
  %22 = extractvalue { ptr, i32 } %21, 0
  store ptr %22, ptr %7, align 8
  %23 = extractvalue { ptr, i32 } %21, 1
  store i32 %23, ptr %8, align 4
  call void @_ZN7QStringD2Ev(ptr noundef nonnull align 8 dereferenceable(24) %6) #11
  br label %24

24:                                               ; preds = %20
  %25 = load ptr, ptr %7, align 8
  %26 = load i32, ptr %8, align 4
  %27 = insertvalue { ptr, i32 } poison, ptr %25, 0
  %28 = insertvalue { ptr, i32 } %27, i32 %26, 1
  resume { ptr, i32 } %28
}

; Function Attrs: mustprogress nounwind uwtable
define linkonce_odr noundef zeroext i1 @_ZNK7QString7isEmptyEv(ptr noundef nonnull align 8 dereferenceable(24) %0) #1 comdat align 2 {
  %2 = alloca ptr, align 8
  store ptr %0, ptr %2, align 8
  %3 = load ptr, ptr %2, align 8
  %4 = getelementptr inbounds %class.QString, ptr %3, i32 0, i32 0
  %5 = getelementptr inbounds %struct.QArrayDataPointer, ptr %4, i32 0, i32 2
  %6 = load i64, ptr %5, align 8
  %7 = icmp eq i64 %6, 0
  ret i1 %7
}

; Function Attrs: mustprogress uwtable
define void @_ZN13MainStatusBar17pushGenericStatusENS_13StatusContextERK7QStringS3_(ptr noundef nonnull align 8 dereferenceable(512) %0, i32 noundef %1, ptr noundef nonnull align 8 dereferenceable(24) %2, ptr noundef nonnull align 8 dereferenceable(24) %3) #0 align 2 {
  %5 = alloca ptr, align 8
  %6 = alloca i32, align 4
  %7 = alloca ptr, align 8
  %8 = alloca ptr, align 8
  %9 = alloca ptr, align 8
  store ptr %0, ptr %5, align 8
  store i32 %1, ptr %6, align 4
  store ptr %2, ptr %7, align 8
  store ptr %3, ptr %8, align 8
  %10 = load ptr, ptr %5, align 8
  %11 = getelementptr inbounds %class.MainStatusBar, ptr %10, i32 0, i32 3
  store ptr %11, ptr %9, align 8
  %12 = load i32, ptr %6, align 4
  %13 = icmp eq i32 %12, 0
  br i1 %13, label %14, label %16

14:                                               ; preds = %4
  %15 = getelementptr inbounds %class.MainStatusBar, ptr %10, i32 0, i32 5
  store ptr %15, ptr %9, align 8
  br label %16

16:                                               ; preds = %14, %4
  %17 = load ptr, ptr %7, align 8
  %18 = call noundef zeroext i1 @_ZNK7QString7isEmptyEv(ptr noundef nonnull align 8 dereferenceable(24) %17)
  br i1 %18, label %19, label %30

19:                                               ; preds = %16
  %20 = load i32, ptr %6, align 4
  %21 = icmp ne i32 %20, 1
  br i1 %21, label %22, label %30

22:                                               ; preds = %19
  %23 = load i32, ptr %6, align 4
  %24 = icmp ne i32 %23, 6
  br i1 %24, label %25, label %30

25:                                               ; preds = %22
  %26 = load i32, ptr %6, align 4
  %27 = icmp ne i32 %26, 5
  br i1 %27, label %28, label %30

28:                                               ; preds = %25
  %29 = load i32, ptr %6, align 4
  call void @_ZN13MainStatusBar16popGenericStatusENS_13StatusContextE(ptr noundef nonnull align 8 dereferenceable(512) %10, i32 noundef %29)
  br label %34

30:                                               ; preds = %25, %22, %19, %16
  %31 = load ptr, ptr %9, align 8
  %32 = load ptr, ptr %7, align 8
  %33 = load i32, ptr %6, align 4
  call void @_ZN10LabelStack8pushTextERK7QStringi(ptr noundef nonnull align 8 dereferenceable(112) %31, ptr noundef nonnull align 8 dereferenceable(24) %32, i32 noundef %33)
  br label %34

34:                                               ; preds = %30, %28
  %35 = load ptr, ptr %9, align 8
  %36 = load ptr, ptr %8, align 8
  call void @_ZN7QWidget10setToolTipERK7QString(ptr noundef nonnull align 8 dereferenceable(40) %35, ptr noundef nonnull align 8 dereferenceable(24) %36)
  %37 = load i32, ptr %6, align 4
  %38 = icmp eq i32 %37, 4
  br i1 %38, label %42, label %39

39:                                               ; preds = %34
  %40 = load i32, ptr %6, align 4
  %41 = icmp eq i32 %40, 1
  br i1 %41, label %42, label %43

42:                                               ; preds = %39, %34
  call void @_ZN13MainStatusBar12expertUpdateEv(ptr noundef nonnull align 8 dereferenceable(512) %10)
  br label %43

43:                                               ; preds = %42, %39
  ret void
}