; Function Attrs: mustprogress uwtable
define void @_ZN13MainStatusBar17pushGenericStatusENS_13StatusContextERK7QStringS3_(ptr noundef nonnull align 8 dereferenceable(512) %0, i32 noundef %1, ptr noundef nonnull align 8 dereferenceable(24) %2, ptr noundef nonnull align 8 dereferenceable(24) %3) local_unnamed_addr #0 align 2 personality ptr @__gxx_personality_v0 {
  %5 = alloca %class.QString, align 8
  %6 = icmp eq i32 %1, 0
  %spec.select.v = select i1 %6, i64 320, i64 56
  %spec.select = getelementptr inbounds i8, ptr %0, i64 %spec.select.v
  %7 = getelementptr inbounds i8, ptr %2, i64 16
  %8 = load i64, ptr %7, align 8
  %9 = icmp eq i64 %8, 0
  br i1 %9, label %switch.early.test, label %22

switch.early.test:                                ; preds = %4
  switch i32 %1, label %10 [
    i32 6, label %22
    i32 5, label %22
    i32 1, label %22
  ]

10:                                               ; preds = %switch.early.test
  call void @llvm.lifetime.start.p0(i64 24, ptr nonnull %5)
  call void @llvm.memset.p0.i64(ptr noundef nonnull align 8 dereferenceable(24) %5, i8 0, i64 24, i1 false)
  invoke void @_ZN7QWidget10setToolTipERK7QString(ptr noundef nonnull align 8 dereferenceable(40) %spec.select, ptr noundef nonnull align 8 dereferenceable(24) %5)
          to label %11 unwind label %16

11:                                               ; preds = %10
  %12 = load ptr, ptr %5, align 8
  %.not.i.i.i.i = icmp eq ptr %12, null
  br i1 %.not.i.i.i.i, label %_ZN13MainStatusBar16popGenericStatusENS_13StatusContextE.exit, label %_ZN17QArrayDataPointerIDsE5derefEv.exit.i.i.i

_ZN17QArrayDataPointerIDsE5derefEv.exit.i.i.i:    ; preds = %11
  %13 = atomicrmw sub ptr %12, i32 1 seq_cst, align 4
  %.not.i.i.i = icmp eq i32 %13, 1
  br i1 %.not.i.i.i, label %14, label %_ZN13MainStatusBar16popGenericStatusENS_13StatusContextE.exit

14:                                               ; preds = %_ZN17QArrayDataPointerIDsE5derefEv.exit.i.i.i
  %15 = load ptr, ptr %5, align 8
  call void @_ZN10QArrayData10deallocateEPS_xx(ptr noundef %15, i64 noundef 2, i64 noundef 8) #12
  br label %_ZN13MainStatusBar16popGenericStatusENS_13StatusContextE.exit

16:                                               ; preds = %10
  %17 = landingpad { ptr, i32 }
          cleanup
  %18 = load ptr, ptr %5, align 8
  %.not.i.i.i6.i = icmp eq ptr %18, null
  br i1 %.not.i.i.i6.i, label %_ZN7QStringD2Ev.exit9.i, label %_ZN17QArrayDataPointerIDsE5derefEv.exit.i.i7.i

_ZN17QArrayDataPointerIDsE5derefEv.exit.i.i7.i:   ; preds = %16
  %19 = atomicrmw sub ptr %18, i32 1 seq_cst, align 4
  %.not.i.i8.i = icmp eq i32 %19, 1
  br i1 %.not.i.i8.i, label %20, label %_ZN7QStringD2Ev.exit9.i

20:                                               ; preds = %_ZN17QArrayDataPointerIDsE5derefEv.exit.i.i7.i
  %21 = load ptr, ptr %5, align 8
  call void @_ZN10QArrayData10deallocateEPS_xx(ptr noundef %21, i64 noundef 2, i64 noundef 8) #12
  br label %_ZN7QStringD2Ev.exit9.i

_ZN7QStringD2Ev.exit9.i:                          ; preds = %20, %_ZN17QArrayDataPointerIDsE5derefEv.exit.i.i7.i, %16
  resume { ptr, i32 } %17

_ZN13MainStatusBar16popGenericStatusENS_13StatusContextE.exit: ; preds = %11, %_ZN17QArrayDataPointerIDsE5derefEv.exit.i.i.i, %14
  call void @_ZN10LabelStack7popTextEi(ptr noundef nonnull align 8 dereferenceable(112) %spec.select, i32 noundef %1)
  call void @llvm.lifetime.end.p0(i64 24, ptr nonnull %5)
  br label %23

22:                                               ; preds = %switch.early.test, %switch.early.test, %switch.early.test, %4
  tail call void @_ZN10LabelStack8pushTextERK7QStringi(ptr noundef nonnull align 8 dereferenceable(112) %spec.select, ptr noundef nonnull align 8 dereferenceable(24) %2, i32 noundef %1)
  br label %23

23:                                               ; preds = %22, %_ZN13MainStatusBar16popGenericStatusENS_13StatusContextE.exit
  call void @_ZN7QWidget10setToolTipERK7QString(ptr noundef nonnull align 8 dereferenceable(40) %spec.select, ptr noundef nonnull align 8 dereferenceable(24) %3)
  switch i32 %1, label %25 [
    i32 4, label %24
    i32 1, label %24
  ]

24:                                               ; preds = %23, %23
  call void @_ZN13MainStatusBar12expertUpdateEv(ptr noundef nonnull align 8 dereferenceable(512) %0)
  br label %25

25:                                               ; preds = %23, %24
  ret void
}